; Function Attrs: nounwind uwtable
define ptr @l_Lean_Meta_Grind_Arith_Cutsat_processVar___lambda__1(ptr noundef %0, ptr noundef %1, ptr readnone captures(none) %2, i8 zeroext %3, ptr readnone captures(none) %4, ptr noundef %5, ptr noundef %6, ptr noundef %7, ptr noundef %8, ptr noundef %9, ptr noundef %10, ptr noundef %11, ptr noundef %12, ptr noundef %13) local_unnamed_addr #1 {
  tail call void @lean_inc_heartbeat() #6
  %15 = tail call noalias ptr @mi_malloc_small(i64 noundef 24) #6
  %16 = icmp eq ptr %15, null
  br i1 %16, label %17, label %lean_alloc_ctor.exit

17:                                               ; preds = %14
  tail call void @lean_internal_panic_out_of_memory() #7
  unreachable

lean_alloc_ctor.exit:                             ; preds = %14
  %18 = getelementptr inbounds nuw i8, ptr %15, i64 4
  store i32 1, ptr %15, align 4, !tbaa !6
  store i32 131096, ptr %18, align 4
  %19 = getelementptr inbounds nuw i8, ptr %15, i64 8
  store ptr %0, ptr %19, align 8, !tbaa !11
  %20 = getelementptr inbounds nuw i8, ptr %15, i64 16
  store ptr inttoptr (i64 3 to ptr), ptr %20, align 8, !tbaa !11
  %21 = tail call ptr @l___private_Lean_Meta_Tactic_Grind_Arith_Cutsat_Search_0__Lean_Meta_Grind_Arith_Cutsat_setAssignment(ptr noundef %1, ptr noundef nonnull %15, ptr noundef %5, ptr noundef %6, ptr noundef %7, ptr noundef %8, ptr noundef %9, ptr noundef %10, ptr noundef %11, ptr noundef %12, ptr noundef %13)
  ret ptr %21
}